target datalayout = "e-m:e-p270:32:32-p271:32:32-p272:64:64-i64:64-i128:128-f80:128-n8:16:32:64-S128"
target triple = "x86_64-pc-linux-gnu"

%struct.DdManager = type { %struct.DdNode, ptr, ptr, ptr, ptr, ptr, ptr, ptr, i32, i32, double, double, double, i32, i32, i32, i32, i32, i32, ptr, ptr, %struct.DdSubtable, i32, i32, i32, i32, i32, i32, i32, double, i32, i32, i32, ptr, i64, double, i32, ptr, ptr, ptr, ptr, ptr, ptr, ptr, i32, ptr, ptr, ptr, ptr, ptr, ptr, i32, i32, i32, double, i32, i32, i32, i32, double, double, i32, i32, i32, i32, i32, i32, i32, i32, i32, ptr, ptr, i32, i32, i32, i32, i32, i32, ptr, ptr, ptr, ptr, ptr, ptr, ptr, ptr, i32, i64, i64, i64, i32, i64, i64, double, double, double, double, double, double, i32, ptr, ptr, i64 }
%struct.DdNode = type { i32, i32, ptr, %union.anon, i64 }
%union.anon = type { %struct.DdChildren }
%struct.DdChildren = type { ptr, ptr }
%struct.DdSubtable = type { ptr, i32, i32, i32, i32, i32, i32, i32, i32, i32, i32, i32 }

; Function Attrs: nounwind uwtable
define ptr @Bbr_bddComputeCube(ptr noundef %0, ptr noundef %1, i32 noundef %2) #0 {
  %4 = alloca ptr, align 8
  %5 = alloca ptr, align 8
  %6 = alloca i32, align 4
  %7 = alloca ptr, align 8
  %8 = alloca ptr, align 8
  %9 = alloca i32, align 4
  store ptr %0, ptr %4, align 8, !tbaa !3
  store ptr %1, ptr %5, align 8, !tbaa !12
  store i32 %2, ptr %6, align 4, !tbaa !10
  call void @llvm.lifetime.start.p0(i64 8, ptr %7) #6
  call void @llvm.lifetime.start.p0(i64 8, ptr %8) #6
  call void @llvm.lifetime.start.p0(i64 4, ptr %9) #6
  %10 = load ptr, ptr %4, align 8, !tbaa !3
  %11 = getelementptr inbounds nuw %struct.DdManager, ptr %10, i32 0, i32 1
  %12 = load ptr, ptr %11, align 8, !tbaa !67
  store ptr %12, ptr %7, align 8, !tbaa !8
  %13 = load ptr, ptr %7, align 8, !tbaa !8
  call void @Cudd_Ref(ptr noundef %13)
  store i32 0, ptr %9, align 4, !tbaa !10
  br label %14

14:                                               ; preds = %30, %3
  %15 = load i32, ptr %9, align 4, !tbaa !10
  %16 = load i32, ptr %6, align 4, !tbaa !10
  %17 = icmp slt i32 %15, %16
  br i1 %17, label %18, label %33

18:                                               ; preds = %14
  %19 = load ptr, ptr %4, align 8, !tbaa !3
  %20 = load ptr, ptr %7, align 8, !tbaa !8
  store ptr %20, ptr %8, align 8, !tbaa !8
  %21 = load ptr, ptr %5, align 8, !tbaa !12
  %22 = load i32, ptr %9, align 4, !tbaa !10
  %23 = sext i32 %22 to i64
  %24 = getelementptr inbounds ptr, ptr %21, i64 %23
  %25 = load ptr, ptr %24, align 8, !tbaa !8
  %26 = call ptr @Cudd_bddAnd(ptr noundef %19, ptr noundef %20, ptr noundef %25)
  store ptr %26, ptr %7, align 8, !tbaa !8
  %27 = load ptr, ptr %7, align 8, !tbaa !8
  call void @Cudd_Ref(ptr noundef %27)
  %28 = load ptr, ptr %4, align 8, !tbaa !3
  %29 = load ptr, ptr %8, align 8, !tbaa !8
  call void @Cudd_RecursiveDeref(ptr noundef %28, ptr noundef %29)
  br label %30

30:                                               ; preds = %18
  %31 = load i32, ptr %9, align 4, !tbaa !10
  %32 = add nsw i32 %31, 1
  store i32 %32, ptr %9, align 4, !tbaa !10
  br label %14, !llvm.loop !100

33:                                               ; preds = %14
  %34 = load ptr, ptr %7, align 8, !tbaa !8
  call void @Cudd_Deref(ptr noundef %34)
  %35 = load ptr, ptr %7, align 8, !tbaa !8
  call void @llvm.lifetime.end.p0(i64 4, ptr %9) #6
  call void @llvm.lifetime.end.p0(i64 8, ptr %8) #6
  call void @llvm.lifetime.end.p0(i64 8, ptr %7) #6
  ret ptr %35
}